; Function Attrs: nounwind uwtable
define hidden void @zim_DOMAttr_isId(ptr noundef readonly captures(none) %0, ptr noundef writeonly captures(none) %1) local_unnamed_addr #0 {
  %3 = getelementptr inbounds nuw i8, ptr %0, i64 44
  %4 = load i32, ptr %3, align 4, !tbaa !9
  %.not = icmp eq i32 %4, 0
  br i1 %.not, label %6, label %5, !prof !71

5:                                                ; preds = %2
  tail call void @zend_wrong_parameters_none_error() #8
  br label %27

6:                                                ; preds = %2
  %7 = getelementptr inbounds nuw i8, ptr %0, i64 32
  %8 = load ptr, ptr %7, align 8, !tbaa !9
  %9 = getelementptr inbounds i8, ptr %8, i64 -24
  %10 = load ptr, ptr %9, align 8, !tbaa !72
  %11 = icmp eq ptr %10, null
  br i1 %11, label %12, label %20, !prof !44

12:                                               ; preds = %6
  %13 = getelementptr inbounds nuw i8, ptr %8, i64 16
  %14 = load ptr, ptr %13, align 8, !tbaa !73
  %15 = getelementptr inbounds nuw i8, ptr %14, i64 8
  %16 = load ptr, ptr %15, align 8, !tbaa !74
  %17 = getelementptr inbounds nuw i8, ptr %16, i64 24
  tail call void (ptr, ptr, ...) @zend_throw_error(ptr noundef null, ptr noundef nonnull @.str.1, ptr noundef nonnull %17) #8
  %18 = load ptr, ptr getelementptr inbounds nuw (i8, ptr @executor_globals, i64 960), align 8, !tbaa !10
  %19 = icmp ne ptr %18, null
  tail call void @llvm.assume(i1 %19)
  br label %27

20:                                               ; preds = %6
  %21 = load ptr, ptr %10, align 8, !tbaa !85
  %22 = getelementptr inbounds nuw i8, ptr %21, i64 80
  %23 = load i32, ptr %22, align 8, !tbaa !60
  %24 = icmp eq i32 %23, 2
  %25 = select i1 %24, i32 3, i32 2
  %26 = getelementptr inbounds nuw i8, ptr %1, i64 8
  store i32 %25, ptr %26, align 8, !tbaa !9
  br label %27

27:                                               ; preds = %20, %12, %5
  ret void
}